; Function Attrs: mustprogress uwtable
define hidden noundef ptr @_Z34pj_projection_specific_setup_rpolyP8PJconsts(ptr noundef %0) local_unnamed_addr #0 {
  %2 = tail call noalias dereferenceable_or_null(32) ptr @calloc(i64 noundef 1, i64 noundef 32) #6
  %3 = icmp eq ptr %2, null
  br i1 %3, label %4, label %6

4:                                                ; preds = %1
  %5 = tail call noundef ptr @_Z21pj_default_destructorP8PJconstsi(ptr noundef %0, i32 noundef 4096)
  br label %26

6:                                                ; preds = %1
  %7 = getelementptr inbounds nuw i8, ptr %0, i64 88
  store ptr %2, ptr %7, align 8, !tbaa !3
  %8 = load ptr, ptr %0, align 8, !tbaa !36
  %9 = getelementptr inbounds nuw i8, ptr %0, i64 24
  %10 = load ptr, ptr %9, align 8, !tbaa !37
  %11 = tail call i64 @_Z8pj_paramP6pj_ctxP8ARG_listPKc(ptr noundef %8, ptr noundef %10, ptr noundef nonnull @.str.1)
  %12 = bitcast i64 %11 to double
  %13 = tail call double @llvm.fabs.f64(double %12)
  store double %13, ptr %2, align 8, !tbaa !38
  %14 = fcmp ogt double %13, 1.000000e-09
  %15 = zext i1 %14 to i32
  %16 = getelementptr inbounds nuw i8, ptr %2, i64 24
  store i32 %15, ptr %16, align 8, !tbaa !40
  br i1 %14, label %17, label %23

17:                                               ; preds = %6
  %18 = tail call double @sin(double noundef %13) #7, !tbaa !41
  %19 = fmul double %18, 5.000000e-01
  %20 = getelementptr inbounds nuw i8, ptr %2, i64 16
  store double %19, ptr %20, align 8, !tbaa !42
  %21 = fdiv double 5.000000e-01, %19
  %22 = getelementptr inbounds nuw i8, ptr %2, i64 8
  store double %21, ptr %22, align 8, !tbaa !43
  br label %23

23:                                               ; preds = %17, %6
  %24 = getelementptr inbounds nuw i8, ptr %0, i64 216
  store double 0.000000e+00, ptr %24, align 8, !tbaa !44
  %25 = getelementptr inbounds nuw i8, ptr %0, i64 104
  store ptr @_ZL15rpoly_s_forward5PJ_LPP8PJconsts, ptr %25, align 8, !tbaa !45
  br label %26

26:                                               ; preds = %23, %4
  %.0 = phi ptr [ %5, %4 ], [ %0, %23 ]
  ret ptr %.0
}